target datalayout = "e-m:e-p270:32:32-p271:32:32-p272:64:64-i64:64-i128:128-f80:128-n8:16:32:64-S128"
target triple = "x86_64-pc-linux-gnu"

; Function Attrs: nounwind uwtable
define void @stb__CompressAlphaBlock(ptr noundef %0, ptr noundef %1, i32 noundef %2) #0 {
  %4 = alloca ptr, align 8
  %5 = alloca ptr, align 8
  %6 = alloca i32, align 4
  %7 = alloca i32, align 4
  %8 = alloca i32, align 4
  %9 = alloca i32, align 4
  %10 = alloca i32, align 4
  %11 = alloca i32, align 4
  %12 = alloca i32, align 4
  %13 = alloca i32, align 4
  %14 = alloca i32, align 4
  %15 = alloca i32, align 4
  %16 = alloca i32, align 4
  %17 = alloca i32, align 4
  %18 = alloca i32, align 4
  store ptr %0, ptr %4, align 8, !tbaa !7
  store ptr %1, ptr %5, align 8, !tbaa !7
  store i32 %2, ptr %6, align 4, !tbaa !3
  call void @llvm.lifetime.start.p0(i64 4, ptr %7) #4
  call void @llvm.lifetime.start.p0(i64 4, ptr %8) #4
  call void @llvm.lifetime.start.p0(i64 4, ptr %9) #4
  call void @llvm.lifetime.start.p0(i64 4, ptr %10) #4
  call void @llvm.lifetime.start.p0(i64 4, ptr %11) #4
  call void @llvm.lifetime.start.p0(i64 4, ptr %12) #4
  call void @llvm.lifetime.start.p0(i64 4, ptr %13) #4
  call void @llvm.lifetime.start.p0(i64 4, ptr %14) #4
  call void @llvm.lifetime.start.p0(i64 4, ptr %15) #4
  %19 = load ptr, ptr %5, align 8, !tbaa !7
  %20 = getelementptr inbounds i8, ptr %19, i64 0
  %21 = load i8, ptr %20, align 1, !tbaa !12
  %22 = zext i8 %21 to i32
  store i32 %22, ptr %15, align 4, !tbaa !3
  store i32 %22, ptr %14, align 4, !tbaa !3
  store i32 1, ptr %7, align 4, !tbaa !3
  br label %23

23:                                               ; preds = %68, %3
  %24 = load i32, ptr %7, align 4, !tbaa !3
  %25 = icmp slt i32 %24, 16
  br i1 %25, label %26, label %71

26:                                               ; preds = %23
  %27 = load ptr, ptr %5, align 8, !tbaa !7
  %28 = load i32, ptr %7, align 4, !tbaa !3
  %29 = load i32, ptr %6, align 4, !tbaa !3
  %30 = mul nsw i32 %28, %29
  %31 = sext i32 %30 to i64
  %32 = getelementptr inbounds i8, ptr %27, i64 %31
  %33 = load i8, ptr %32, align 1, !tbaa !12
  %34 = zext i8 %33 to i32
  %35 = load i32, ptr %14, align 4, !tbaa !3
  %36 = icmp slt i32 %34, %35
  br i1 %36, label %37, label %46

37:                                               ; preds = %26
  %38 = load ptr, ptr %5, align 8, !tbaa !7
  %39 = load i32, ptr %7, align 4, !tbaa !3
  %40 = load i32, ptr %6, align 4, !tbaa !3
  %41 = mul nsw i32 %39, %40
  %42 = sext i32 %41 to i64
  %43 = getelementptr inbounds i8, ptr %38, i64 %42
  %44 = load i8, ptr %43, align 1, !tbaa !12
  %45 = zext i8 %44 to i32
  store i32 %45, ptr %14, align 4, !tbaa !3
  br label %67

46:                                               ; preds = %26
  %47 = load ptr, ptr %5, align 8, !tbaa !7
  %48 = load i32, ptr %7, align 4, !tbaa !3
  %49 = load i32, ptr %6, align 4, !tbaa !3
  %50 = mul nsw i32 %48, %49
  %51 = sext i32 %50 to i64
  %52 = getelementptr inbounds i8, ptr %47, i64 %51
  %53 = load i8, ptr %52, align 1, !tbaa !12
  %54 = zext i8 %53 to i32
  %55 = load i32, ptr %15, align 4, !tbaa !3
  %56 = icmp sgt i32 %54, %55
  br i1 %56, label %57, label %66

57:                                               ; preds = %46
  %58 = load ptr, ptr %5, align 8, !tbaa !7
  %59 = load i32, ptr %7, align 4, !tbaa !3
  %60 = load i32, ptr %6, align 4, !tbaa !3
  %61 = mul nsw i32 %59, %60
  %62 = sext i32 %61 to i64
  %63 = getelementptr inbounds i8, ptr %58, i64 %62
  %64 = load i8, ptr %63, align 1, !tbaa !12
  %65 = zext i8 %64 to i32
  store i32 %65, ptr %15, align 4, !tbaa !3
  br label %66

66:                                               ; preds = %57, %46
  br label %67

67:                                               ; preds = %66, %37
  br label %68

68:                                               ; preds = %67
  %69 = load i32, ptr %7, align 4, !tbaa !3
  %70 = add nsw i32 %69, 1
  store i32 %70, ptr %7, align 4, !tbaa !3
  br label %23, !llvm.loop !34

71:                                               ; preds = %23
  %72 = load i32, ptr %15, align 4, !tbaa !3
  %73 = trunc i32 %72 to i8
  %74 = load ptr, ptr %4, align 8, !tbaa !7
  %75 = getelementptr inbounds i8, ptr %74, i64 0
  store i8 %73, ptr %75, align 1, !tbaa !12
  %76 = load i32, ptr %14, align 4, !tbaa !3
  %77 = trunc i32 %76 to i8
  %78 = load ptr, ptr %4, align 8, !tbaa !7
  %79 = getelementptr inbounds i8, ptr %78, i64 1
  store i8 %77, ptr %79, align 1, !tbaa !12
  %80 = load ptr, ptr %4, align 8, !tbaa !7
  %81 = getelementptr inbounds i8, ptr %80, i64 2
  store ptr %81, ptr %4, align 8, !tbaa !7
  %82 = load i32, ptr %15, align 4, !tbaa !3
  %83 = load i32, ptr %14, align 4, !tbaa !3
  %84 = sub nsw i32 %82, %83
  store i32 %84, ptr %8, align 4, !tbaa !3
  %85 = load i32, ptr %8, align 4, !tbaa !3
  %86 = mul nsw i32 %85, 4
  store i32 %86, ptr %10, align 4, !tbaa !3
  %87 = load i32, ptr %8, align 4, !tbaa !3
  %88 = mul nsw i32 %87, 2
  store i32 %88, ptr %11, align 4, !tbaa !3
  %89 = load i32, ptr %8, align 4, !tbaa !3
  %90 = icmp slt i32 %89, 8
  br i1 %90, label %91, label %94

91:                                               ; preds = %71
  %92 = load i32, ptr %8, align 4, !tbaa !3
  %93 = sub nsw i32 %92, 1
  br label %98

94:                                               ; preds = %71
  %95 = load i32, ptr %8, align 4, !tbaa !3
  %96 = sdiv i32 %95, 2
  %97 = add nsw i32 %96, 2
  br label %98

98:                                               ; preds = %94, %91
  %99 = phi i32 [ %93, %91 ], [ %97, %94 ]
  store i32 %99, ptr %9, align 4, !tbaa !3
  %100 = load i32, ptr %14, align 4, !tbaa !3
  %101 = mul nsw i32 %100, 7
  %102 = load i32, ptr %9, align 4, !tbaa !3
  %103 = sub nsw i32 %102, %101
  store i32 %103, ptr %9, align 4, !tbaa !3
  store i32 0, ptr %12, align 4, !tbaa !3
  store i32 0, ptr %13, align 4, !tbaa !3
  store i32 0, ptr %7, align 4, !tbaa !3
  br label %104

104:                                              ; preds = %175, %98
  %105 = load i32, ptr %7, align 4, !tbaa !3
  %106 = icmp slt i32 %105, 16
  br i1 %106, label %107, label %178

107:                                              ; preds = %104
  call void @llvm.lifetime.start.p0(i64 4, ptr %16) #4
  %108 = load ptr, ptr %5, align 8, !tbaa !7
  %109 = load i32, ptr %7, align 4, !tbaa !3
  %110 = load i32, ptr %6, align 4, !tbaa !3
  %111 = mul nsw i32 %109, %110
  %112 = sext i32 %111 to i64
  %113 = getelementptr inbounds i8, ptr %108, i64 %112
  %114 = load i8, ptr %113, align 1, !tbaa !12
  %115 = zext i8 %114 to i32
  %116 = mul nsw i32 %115, 7
  %117 = load i32, ptr %9, align 4, !tbaa !3
  %118 = add nsw i32 %116, %117
  store i32 %118, ptr %16, align 4, !tbaa !3
  call void @llvm.lifetime.start.p0(i64 4, ptr %17) #4
  call void @llvm.lifetime.start.p0(i64 4, ptr %18) #4
  %119 = load i32, ptr %16, align 4, !tbaa !3
  %120 = load i32, ptr %10, align 4, !tbaa !3
  %121 = icmp sge i32 %119, %120
  %122 = select i1 %121, i32 -1, i32 0
  store i32 %122, ptr %18, align 4, !tbaa !3
  %123 = load i32, ptr %18, align 4, !tbaa !3
  %124 = and i32 %123, 4
  store i32 %124, ptr %17, align 4, !tbaa !3
  %125 = load i32, ptr %10, align 4, !tbaa !3
  %126 = load i32, ptr %18, align 4, !tbaa !3
  %127 = and i32 %125, %126
  %128 = load i32, ptr %16, align 4, !tbaa !3
  %129 = sub nsw i32 %128, %127
  store i32 %129, ptr %16, align 4, !tbaa !3
  %130 = load i32, ptr %16, align 4, !tbaa !3
  %131 = load i32, ptr %11, align 4, !tbaa !3
  %132 = icmp sge i32 %130, %131
  %133 = select i1 %132, i32 -1, i32 0
  store i32 %133, ptr %18, align 4, !tbaa !3
  %134 = load i32, ptr %18, align 4, !tbaa !3
  %135 = and i32 %134, 2
  %136 = load i32, ptr %17, align 4, !tbaa !3
  %137 = add nsw i32 %136, %135
  store i32 %137, ptr %17, align 4, !tbaa !3
  %138 = load i32, ptr %11, align 4, !tbaa !3
  %139 = load i32, ptr %18, align 4, !tbaa !3
  %140 = and i32 %138, %139
  %141 = load i32, ptr %16, align 4, !tbaa !3
  %142 = sub nsw i32 %141, %140
  store i32 %142, ptr %16, align 4, !tbaa !3
  %143 = load i32, ptr %16, align 4, !tbaa !3
  %144 = load i32, ptr %8, align 4, !tbaa !3
  %145 = icmp sge i32 %143, %144
  %146 = zext i1 %145 to i32
  %147 = load i32, ptr %17, align 4, !tbaa !3
  %148 = add nsw i32 %147, %146
  store i32 %148, ptr %17, align 4, !tbaa !3
  %149 = load i32, ptr %17, align 4, !tbaa !3
  %150 = sub nsw i32 0, %149
  %151 = and i32 %150, 7
  store i32 %151, ptr %17, align 4, !tbaa !3
  %152 = load i32, ptr %17, align 4, !tbaa !3
  %153 = icmp sgt i32 2, %152
  %154 = zext i1 %153 to i32
  %155 = load i32, ptr %17, align 4, !tbaa !3
  %156 = xor i32 %155, %154
  store i32 %156, ptr %17, align 4, !tbaa !3
  %157 = load i32, ptr %17, align 4, !tbaa !3
  %158 = load i32, ptr %12, align 4, !tbaa !3
  %159 = shl i32 %157, %158
  %160 = load i32, ptr %13, align 4, !tbaa !3
  %161 = or i32 %160, %159
  store i32 %161, ptr %13, align 4, !tbaa !3
  %162 = load i32, ptr %12, align 4, !tbaa !3
  %163 = add nsw i32 %162, 3
  store i32 %163, ptr %12, align 4, !tbaa !3
  %164 = icmp sge i32 %163, 8
  br i1 %164, label %165, label %174

165:                                              ; preds = %107
  %166 = load i32, ptr %13, align 4, !tbaa !3
  %167 = trunc i32 %166 to i8
  %168 = load ptr, ptr %4, align 8, !tbaa !7
  %169 = getelementptr inbounds nuw i8, ptr %168, i32 1
  store ptr %169, ptr %4, align 8, !tbaa !7
  store i8 %167, ptr %168, align 1, !tbaa !12
  %170 = load i32, ptr %13, align 4, !tbaa !3
  %171 = ashr i32 %170, 8
  store i32 %171, ptr %13, align 4, !tbaa !3
  %172 = load i32, ptr %12, align 4, !tbaa !3
  %173 = sub nsw i32 %172, 8
  store i32 %173, ptr %12, align 4, !tbaa !3
  br label %174

174:                                              ; preds = %165, %107
  call void @llvm.lifetime.end.p0(i64 4, ptr %18) #4
  call void @llvm.lifetime.end.p0(i64 4, ptr %17) #4
  call void @llvm.lifetime.end.p0(i64 4, ptr %16) #4
  br label %175

175:                                              ; preds = %174
  %176 = load i32, ptr %7, align 4, !tbaa !3
  %177 = add nsw i32 %176, 1
  store i32 %177, ptr %7, align 4, !tbaa !3
  br label %104, !llvm.loop !35

178:                                              ; preds = %104
  call void @llvm.lifetime.end.p0(i64 4, ptr %15) #4
  call void @llvm.lifetime.end.p0(i64 4, ptr %14) #4
  call void @llvm.lifetime.end.p0(i64 4, ptr %13) #4
  call void @llvm.lifetime.end.p0(i64 4, ptr %12) #4
  call void @llvm.lifetime.end.p0(i64 4, ptr %11) #4
  call void @llvm.lifetime.end.p0(i64 4, ptr %10) #4
  call void @llvm.lifetime.end.p0(i64 4, ptr %9) #4
  call void @llvm.lifetime.end.p0(i64 4, ptr %8) #4
  call void @llvm.lifetime.end.p0(i64 4, ptr %7) #4
  ret void
}

; Function Attrs: nounwind uwtable
define void @stb_compress_bc4_block(ptr noundef %0, ptr noundef %1) #0 {
  %3 = alloca ptr, align 8
  %4 = alloca ptr, align 8
  store ptr %0, ptr %3, align 8, !tbaa !7
  store ptr %1, ptr %4, align 8, !tbaa !7
  %5 = load ptr, ptr %3, align 8, !tbaa !7
  %6 = load ptr, ptr %4, align 8, !tbaa !7
  call void @stb__CompressAlphaBlock(ptr noundef %5, ptr noundef %6, i32 noundef 1)
  ret void
}