; Function Attrs: nofree norecurse nosync nounwind memory(argmem: readwrite) uwtable
define void @stb_compress_bc4_block(ptr noundef writeonly captures(none) %0, ptr noundef readonly captures(none) %1) local_unnamed_addr #5 {
  %3 = load i8, ptr %1, align 1, !tbaa !3
  %4 = zext i8 %3 to i32
  br label %5

5:                                                ; preds = %5, %2
  %indvars.iv.i = phi i64 [ 1, %2 ], [ %indvars.iv.next.i, %5 ]
  %.06586.i = phi i32 [ %4, %2 ], [ %.166.i, %5 ]
  %.06785.i = phi i32 [ %4, %2 ], [ %.168.i, %5 ]
  %6 = getelementptr inbounds nuw i8, ptr %1, i64 %indvars.iv.i
  %7 = load i8, ptr %6, align 1, !tbaa !3
  %8 = zext i8 %7 to i32
  %9 = icmp samesign ugt i32 %.06785.i, %8
  %spec.select.i = tail call i32 @llvm.smax.i32(i32 %.06586.i, i32 %8)
  %.168.i = tail call i32 @llvm.umin.i32(i32 %.06785.i, i32 %8)
  %.166.i = select i1 %9, i32 %.06586.i, i32 %spec.select.i
  %indvars.iv.next.i = add nuw nsw i64 %indvars.iv.i, 1
  %exitcond.not.i = icmp eq i64 %indvars.iv.next.i, 16
  br i1 %exitcond.not.i, label %10, label %5, !llvm.loop !26

10:                                               ; preds = %5
  %11 = trunc nuw i32 %.166.i to i8
  store i8 %11, ptr %0, align 1, !tbaa !3
  %12 = trunc nuw i32 %.168.i to i8
  %13 = getelementptr inbounds nuw i8, ptr %0, i64 1
  store i8 %12, ptr %13, align 1, !tbaa !3
  %14 = getelementptr inbounds nuw i8, ptr %0, i64 2
  %15 = sub nsw i32 %.166.i, %.168.i
  %16 = shl nsw i32 %15, 2
  %17 = shl nsw i32 %15, 1
  %18 = icmp slt i32 %15, 8
  %19 = add nsw i32 %15, -1
  %20 = lshr i32 %15, 1
  %21 = add nuw nsw i32 %20, 2
  %22 = select i1 %18, i32 %19, i32 %21
  br label %23

23:                                               ; preds = %46, %10
  %indvars.iv93.i = phi i64 [ 0, %10 ], [ %indvars.iv.next94.i, %46 ]
  %.091.i = phi ptr [ %14, %10 ], [ %.1.i, %46 ]
  %.06989.i = phi i32 [ 0, %10 ], [ %.170.i, %46 ]
  %.07188.i = phi i32 [ 0, %10 ], [ %.172.i, %46 ]
  %24 = getelementptr inbounds nuw i8, ptr %1, i64 %indvars.iv93.i
  %25 = load i8, ptr %24, align 1, !tbaa !3
  %26 = zext i8 %25 to i32
  %reass.add.i = sub nsw i32 %26, %.168.i
  %reass.mul.i = mul nsw i32 %reass.add.i, 7
  %27 = add i32 %reass.mul.i, %22
  %.not.not.i = icmp slt i32 %27, %16
  %.neg80.i = select i1 %.not.not.i, i32 0, i32 4
  %28 = select i1 %.not.not.i, i32 0, i32 %16
  %29 = sub nsw i32 %27, %28
  %.not.not79.i = icmp slt i32 %29, %17
  %.neg81.i = select i1 %.not.not79.i, i32 0, i32 6
  %.neg82.i = add nuw nsw i32 %.neg81.i, %.neg80.i
  %30 = select i1 %.not.not79.i, i32 0, i32 %17
  %31 = sub nsw i32 %29, %30
  %32 = icmp sge i32 %31, %15
  %.neg83.i = sext i1 %32 to i32
  %.neg84.i = add nsw i32 %.neg82.i, %.neg83.i
  %33 = and i32 %.neg84.i, 7
  %34 = icmp samesign ult i32 %33, 2
  %35 = zext i1 %34 to i32
  %36 = xor i32 %33, %35
  %37 = shl i32 %36, %.07188.i
  %38 = or i32 %37, %.06989.i
  %39 = add nsw i32 %.07188.i, 3
  %40 = icmp sgt i32 %.07188.i, 4
  br i1 %40, label %41, label %46

41:                                               ; preds = %23
  %42 = trunc i32 %38 to i8
  %43 = getelementptr inbounds nuw i8, ptr %.091.i, i64 1
  store i8 %42, ptr %.091.i, align 1, !tbaa !3
  %44 = ashr i32 %38, 8
  %45 = add nsw i32 %.07188.i, -5
  br label %46

46:                                               ; preds = %41, %23
  %.172.i = phi i32 [ %45, %41 ], [ %39, %23 ]
  %.170.i = phi i32 [ %44, %41 ], [ %38, %23 ]
  %.1.i = phi ptr [ %43, %41 ], [ %.091.i, %23 ]
  %indvars.iv.next94.i = add nuw nsw i64 %indvars.iv93.i, 1
  %exitcond96.not.i = icmp eq i64 %indvars.iv.next94.i, 16
  br i1 %exitcond96.not.i, label %stb__CompressAlphaBlock.exit, label %23, !llvm.loop !27

stb__CompressAlphaBlock.exit:                     ; preds = %46
  ret void
}